target datalayout = "e-m:e-p270:32:32-p271:32:32-p272:64:64-i64:64-i128:128-f80:128-n8:16:32:64-S128"
target triple = "x86_64-unknown-linux-gnu"

@_acpi_module_name = internal constant [7 x i8] c"exmisc\00", align 1
@.str = private unnamed_addr constant [32 x i8] c"Invalid Reference Class 0x%2.2X\00", align 1
@.str.1 = private unnamed_addr constant [29 x i8] c"Invalid descriptor type 0x%X\00", align 1
@acpi_gbl_integer_bit_width = external dso_local local_unnamed_addr global i8, align 1
@.str.2 = private unnamed_addr constant [35 x i8] c"Invalid numeric logical opcode: %X\00", align 1
@.str.3 = private unnamed_addr constant [45 x i8] c"Invalid object type for logical operator: %X\00", align 1
@.str.4 = private unnamed_addr constant [30 x i8] c"Invalid comparison opcode: %X\00", align 1

; Function Attrs: fn_ret_thunk_extern nounwind null_pointer_is_valid
define dso_local noundef i32 @acpi_ex_get_object_reference(ptr noundef %0, ptr nocapture noundef writeonly %1, ptr nocapture noundef readnone %2) local_unnamed_addr #0 align 16 {
  store ptr null, ptr %1, align 8
  %4 = getelementptr inbounds i8, ptr %0, i64 8
  %5 = load i8, ptr %4, align 8
  switch i8 %5, label %18 [
    i8 14, label %6
    i8 15, label %20
  ]

6:                                                ; preds = %3
  %7 = getelementptr inbounds i8, ptr %0, i64 9
  %8 = load i8, ptr %7, align 1
  %9 = icmp eq i8 %8, 20
  br i1 %9, label %10, label %27

10:                                               ; preds = %6
  %11 = getelementptr inbounds i8, ptr %0, i64 13
  %12 = load i8, ptr %11, align 1
  switch i8 %12, label %16 [
    i8 0, label %13
    i8 1, label %13
    i8 6, label %13
  ]

13:                                               ; preds = %10, %10, %10
  %14 = getelementptr inbounds i8, ptr %0, i64 16
  %15 = load ptr, ptr %14, align 8
  br label %20

16:                                               ; preds = %10
  %17 = zext i8 %12 to i32
  tail call void (ptr, i32, ptr, ...) @acpi_error(ptr noundef nonnull @_acpi_module_name, i32 noundef 66, ptr noundef nonnull @.str, i32 noundef %17) #6
  br label %27

18:                                               ; preds = %3
  %19 = zext i8 %5 to i32
  tail call void (ptr, i32, ptr, ...) @acpi_error(ptr noundef nonnull @_acpi_module_name, i32 noundef 81, ptr noundef nonnull @.str.1, i32 noundef %19) #6
  br label %27

20:                                               ; preds = %13, %3
  %21 = phi ptr [ %15, %13 ], [ %0, %3 ]
  %22 = tail call ptr @acpi_ut_create_internal_object_dbg(ptr noundef nonnull @_acpi_module_name, i32 noundef 89, i32 noundef 128, i32 noundef 20) #6
  %23 = icmp eq ptr %22, null
  br i1 %23, label %27, label %24

24:                                               ; preds = %20
  %25 = getelementptr inbounds i8, ptr %22, i64 13
  store i8 2, ptr %25, align 1
  %26 = getelementptr inbounds i8, ptr %22, i64 16
  store ptr %21, ptr %26, align 8
  store ptr %22, ptr %1, align 8
  br label %27

27:                                               ; preds = %24, %20, %18, %16, %6
  %28 = phi i32 [ 8, %18 ], [ 0, %24 ], [ 12291, %16 ], [ 12291, %6 ], [ 4, %20 ]
  ret i32 %28
}

; Function Attrs: nocallback nofree nosync nounwind willreturn memory(argmem: readwrite)
declare void @llvm.lifetime.start.p0(i64 immarg, ptr nocapture) #1

; Function Attrs: null_pointer_is_valid
declare dso_local void @acpi_error(ptr noundef, i32 noundef, ptr noundef, ...) local_unnamed_addr #2

; Function Attrs: null_pointer_is_valid
declare dso_local ptr @acpi_ut_create_internal_object_dbg(ptr noundef, i32 noundef, i32 noundef, i32 noundef) local_unnamed_addr #2

; Function Attrs: nocallback nofree nosync nounwind willreturn memory(argmem: readwrite)
declare void @llvm.lifetime.end.p0(i64 immarg, ptr nocapture) #1

; Function Attrs: fn_ret_thunk_extern mustprogress nofree norecurse nosync nounwind null_pointer_is_valid willreturn memory(read, argmem: none, inaccessiblemem: none)
define dso_local i64 @acpi_ex_do_math_op(i16 noundef zeroext %0, i64 noundef %1, i64 noundef %2) local_unnamed_addr #3 align 16 {
  switch i16 %0, label %34 [
    i16 114, label %4
    i16 123, label %6
    i16 124, label %8
    i16 125, label %11
    i16 126, label %13
    i16 127, label %16
    i16 119, label %18
    i16 121, label %20
    i16 122, label %26
    i16 116, label %32
  ]

4:                                                ; preds = %3
  %5 = add i64 %2, %1
  br label %34

6:                                                ; preds = %3
  %7 = and i64 %2, %1
  br label %34

8:                                                ; preds = %3
  %9 = and i64 %2, %1
  %10 = xor i64 %9, -1
  br label %34

11:                                               ; preds = %3
  %12 = or i64 %2, %1
  br label %34

13:                                               ; preds = %3
  %14 = or i64 %2, %1
  %15 = xor i64 %14, -1
  br label %34

16:                                               ; preds = %3
  %17 = xor i64 %2, %1
  br label %34

18:                                               ; preds = %3
  %19 = mul i64 %2, %1
  br label %34

20:                                               ; preds = %3
  %21 = load i8, ptr @acpi_gbl_integer_bit_width, align 1
  %22 = zext i8 %21 to i64
  %23 = icmp ugt i64 %22, %2
  %24 = shl i64 %1, %2
  %25 = select i1 %23, i64 %24, i64 0
  br label %34

26:                                               ; preds = %3
  %27 = load i8, ptr @acpi_gbl_integer_bit_width, align 1
  %28 = zext i8 %27 to i64
  %29 = icmp ugt i64 %28, %2
  %30 = lshr i64 %1, %2
  %31 = select i1 %29, i64 %30, i64 0
  br label %34

32:                                               ; preds = %3
  %33 = sub i64 %1, %2
  br label %34

34:                                               ; preds = %32, %26, %20, %18, %16, %13, %11, %8, %6, %4, %3
  %35 = phi i64 [ %33, %32 ], [ %19, %18 ], [ %17, %16 ], [ %15, %13 ], [ %12, %11 ], [ %10, %8 ], [ %7, %6 ], [ %5, %4 ], [ 0, %3 ], [ %25, %20 ], [ %31, %26 ]
  ret i64 %35
}

; Function Attrs: fn_ret_thunk_extern nounwind null_pointer_is_valid
define dso_local noundef i32 @acpi_ex_do_logical_numeric_op(i16 noundef zeroext %0, i64 noundef %1, i64 noundef %2, ptr nocapture noundef writeonly %3) local_unnamed_addr #0 align 16 {
  switch i16 %0, label %12 [
    i16 144, label %5
    i16 145, label %9
  ]

5:                                                ; preds = %4
  %6 = icmp ne i64 %1, 0
  %7 = icmp ne i64 %2, 0
  %8 = and i1 %6, %7
  br label %14

9:                                                ; preds = %4
  %10 = or i64 %2, %1
  %11 = icmp ne i64 %10, 0
  br label %14

12:                                               ; preds = %4
  %13 = zext i16 %0 to i32
  tail call void (ptr, i32, ptr, ...) @acpi_error(ptr noundef nonnull @_acpi_module_name, i32 noundef 234, ptr noundef nonnull @.str.2, i32 noundef %13) #6
  br label %14

14:                                               ; preds = %12, %9, %5
  %15 = phi i32 [ 12303, %12 ], [ 0, %5 ], [ 0, %9 ]
  %16 = phi i1 [ false, %12 ], [ %8, %5 ], [ %11, %9 ]
  %17 = zext i1 %16 to i8
  store i8 %17, ptr %3, align 1
  ret i32 %15
}

; Function Attrs: fn_ret_thunk_extern nounwind null_pointer_is_valid
define dso_local i32 @acpi_ex_do_logical_op(i16 noundef zeroext %0, ptr nocapture noundef readonly %1, ptr noundef %2, ptr nocapture noundef writeonly %3) local_unnamed_addr #0 align 16 {
  %5 = alloca ptr, align 8
  call void @llvm.lifetime.start.p0(i64 8, ptr nonnull %5) #6
  store ptr %2, ptr %5, align 8
  %6 = getelementptr inbounds i8, ptr %1, i64 9
  %7 = load i8, ptr %6, align 1
  switch i8 %7, label %14 [
    i8 1, label %8
    i8 2, label %10
    i8 3, label %12
  ]

8:                                                ; preds = %4
  %9 = call i32 @acpi_ex_convert_to_integer(ptr noundef %2, ptr noundef nonnull %5, i32 noundef 1) #6
  br label %16

10:                                               ; preds = %4
  %11 = call i32 @acpi_ex_convert_to_string(ptr noundef %2, ptr noundef nonnull %5, i32 noundef 2) #6
  br label %16

12:                                               ; preds = %4
  %13 = call i32 @acpi_ex_convert_to_buffer(ptr noundef %2, ptr noundef nonnull %5) #6
  br label %16

14:                                               ; preds = %4
  %15 = zext i8 %7 to i32
  tail call void (ptr, i32, ptr, ...) @acpi_error(ptr noundef nonnull @_acpi_module_name, i32 noundef 316, ptr noundef nonnull @.str.3, i32 noundef %15) #6
  br label %16

16:                                               ; preds = %14, %12, %10, %8
  %17 = phi i32 [ 12303, %14 ], [ %13, %12 ], [ %11, %10 ], [ %9, %8 ]
  %18 = icmp eq i32 %17, 0
  br i1 %18, label %19, label %66

19:                                               ; preds = %16
  %20 = load i8, ptr %6, align 1
  %21 = icmp eq i8 %20, 1
  %22 = load ptr, ptr %5, align 8
  br i1 %21, label %23, label %36

23:                                               ; preds = %19
  %24 = getelementptr inbounds i8, ptr %1, i64 16
  %25 = load i64, ptr %24, align 8
  %26 = getelementptr inbounds i8, ptr %22, i64 16
  %27 = load i64, ptr %26, align 8
  switch i16 %0, label %34 [
    i16 147, label %28
    i16 148, label %30
    i16 149, label %32
  ]

28:                                               ; preds = %23
  %29 = icmp eq i64 %25, %27
  br label %66

30:                                               ; preds = %23
  %31 = icmp ugt i64 %25, %27
  br label %66

32:                                               ; preds = %23
  %33 = icmp ult i64 %25, %27
  br label %66

34:                                               ; preds = %23
  %35 = zext i16 %0 to i32
  call void (ptr, i32, ptr, ...) @acpi_error(ptr noundef nonnull @_acpi_module_name, i32 noundef 362, ptr noundef nonnull @.str.4, i32 noundef %35) #6
  br label %66

36:                                               ; preds = %19
  %37 = getelementptr inbounds i8, ptr %1, i64 24
  %38 = load i32, ptr %37, align 8
  %39 = getelementptr inbounds i8, ptr %22, i64 24
  %40 = load i32, ptr %39, align 8
  %41 = getelementptr inbounds i8, ptr %1, i64 16
  %42 = load ptr, ptr %41, align 8
  %43 = getelementptr inbounds i8, ptr %22, i64 16
  %44 = load ptr, ptr %43, align 8
  %45 = icmp ugt i32 %38, %40
  %46 = call i32 @llvm.umin.i32(i32 %38, i32 %40)
  %47 = zext i32 %46 to i64
  %48 = call i32 @memcmp(ptr noundef %42, ptr noundef %44, i64 noundef %47)
  switch i16 %0, label %64 [
    i16 147, label %49
    i16 148, label %53
    i16 149, label %58
  ]

49:                                               ; preds = %36
  %50 = icmp eq i32 %38, %40
  %51 = icmp eq i32 %48, 0
  %52 = select i1 %50, i1 %51, i1 false
  br label %66

53:                                               ; preds = %36
  %54 = icmp sgt i32 %48, 0
  br i1 %54, label %66, label %55

55:                                               ; preds = %53
  %56 = icmp eq i32 %48, 0
  %57 = select i1 %56, i1 %45, i1 false
  br label %66

58:                                               ; preds = %36
  %59 = icmp sgt i32 %48, 0
  br i1 %59, label %66, label %60

60:                                               ; preds = %58
  %61 = icmp ne i32 %48, 0
  %62 = icmp ult i32 %38, %40
  %63 = select i1 %61, i1 true, i1 %62
  br label %66

64:                                               ; preds = %36
  %65 = zext i16 %0 to i32
  call void (ptr, i32, ptr, ...) @acpi_error(ptr noundef nonnull @_acpi_module_name, i32 noundef 432, ptr noundef nonnull @.str.4, i32 noundef %65) #6
  br label %66

66:                                               ; preds = %64, %60, %58, %55, %53, %49, %34, %32, %30, %28, %16
  %67 = phi i32 [ %17, %16 ], [ 12303, %34 ], [ 12303, %64 ], [ 0, %58 ], [ 0, %28 ], [ 0, %30 ], [ 0, %32 ], [ 0, %49 ], [ 0, %53 ], [ 0, %55 ], [ 0, %60 ]
  %68 = phi i1 [ false, %16 ], [ false, %34 ], [ false, %64 ], [ false, %58 ], [ %29, %28 ], [ %31, %30 ], [ %33, %32 ], [ %52, %49 ], [ true, %53 ], [ %57, %55 ], [ %63, %60 ]
  %69 = load ptr, ptr %5, align 8
  %70 = icmp eq ptr %69, %2
  br i1 %70, label %72, label %71

71:                                               ; preds = %66
  call void @acpi_ut_remove_reference(ptr noundef %69) #6
  br label %72

72:                                               ; preds = %71, %66
  %73 = zext i1 %68 to i8
  store i8 %73, ptr %3, align 1
  call void @llvm.lifetime.end.p0(i64 8, ptr nonnull %5) #6
  ret i32 %67
}

; Function Attrs: null_pointer_is_valid
declare dso_local i32 @acpi_ex_convert_to_integer(ptr noundef, ptr noundef, i32 noundef) local_unnamed_addr #2

; Function Attrs: null_pointer_is_valid
declare dso_local i32 @acpi_ex_convert_to_string(ptr noundef, ptr noundef, i32 noundef) local_unnamed_addr #2

; Function Attrs: null_pointer_is_valid
declare dso_local i32 @acpi_ex_convert_to_buffer(ptr noundef, ptr noundef) local_unnamed_addr #2

; Function Attrs: mustprogress nofree nounwind null_pointer_is_valid willreturn memory(argmem: read)
declare dso_local i32 @memcmp(ptr nocapture noundef, ptr nocapture noundef, i64 noundef) local_unnamed_addr #4

; Function Attrs: null_pointer_is_valid
declare dso_local void @acpi_ut_remove_reference(ptr noundef) local_unnamed_addr #2

; Function Attrs: nocallback nofree nosync nounwind speculatable willreturn memory(none)
declare i32 @llvm.umin.i32(i32, i32) #5


!llvm.module.flags = !{!0, !1, !2, !3, !4}

!0 = !{i32 1, !"wchar_size", i32 2}
!1 = !{i32 8, !"cf-protection-branch", i32 1}
!2 = !{i32 4, !"function_return_thunk_extern", i32 1}
!3 = !{i32 4, !"indirect_branch_cs_prefix", i32 1}
!4 = !{i32 4, !"SkipRaxSetup", i32 1}
